target datalayout = "e-m:e-p270:32:32-p271:32:32-p272:64:64-i64:64-i128:128-f80:128-n8:16:32:64-S128"
target triple = "x86_64-pc-linux-gnu"

%struct.lua_State = type { i8, i8, i8, i8, i8, i8, i8, ptr, ptr, ptr, ptr, ptr, ptr, ptr, ptr, i32, i32, i16, i16, i32, ptr, ptr, ptr, ptr, ptr }
%struct.CallInfo = type { ptr, ptr, ptr, ptr, i32, i32 }
%struct.lua_TValue = type { %union.Value, [1 x i32], i32 }
%union.Value = type { ptr }
%struct.Closure = type { i8, i8, i8, i8, i8, i8, i8, ptr, ptr, %union.anon.0 }
%union.anon.0 = type { %struct.anon }
%struct.anon = type { ptr, ptr, ptr, [1 x %struct.lua_TValue] }

; Function Attrs: mustprogress nounwind uwtable
define hidden noundef zeroext i1 @_Z12luaG_onbreakP9lua_State(ptr noundef %0) #2 {
  %2 = alloca i1, align 1
  %3 = alloca ptr, align 8
  store ptr %0, ptr %3, align 8, !tbaa !4
  %4 = load ptr, ptr %3, align 8, !tbaa !4
  %5 = getelementptr inbounds nuw %struct.lua_State, ptr %4, i32 0, i32 10
  %6 = load ptr, ptr %5, align 8, !tbaa !11
  %7 = load ptr, ptr %3, align 8, !tbaa !4
  %8 = getelementptr inbounds nuw %struct.lua_State, ptr %7, i32 0, i32 14
  %9 = load ptr, ptr %8, align 8, !tbaa !22
  %10 = icmp eq ptr %6, %9
  br i1 %10, label %11, label %12

11:                                               ; preds = %1
  store i1 false, ptr %2, align 1
  br label %42

12:                                               ; preds = %1
  %13 = load ptr, ptr %3, align 8, !tbaa !4
  %14 = getelementptr inbounds nuw %struct.lua_State, ptr %13, i32 0, i32 10
  %15 = load ptr, ptr %14, align 8, !tbaa !11
  %16 = getelementptr inbounds nuw %struct.CallInfo, ptr %15, i32 0, i32 1
  %17 = load ptr, ptr %16, align 8, !tbaa !40
  %18 = getelementptr inbounds nuw %struct.lua_TValue, ptr %17, i32 0, i32 2
  %19 = load i32, ptr %18, align 4, !tbaa !41
  %20 = icmp eq i32 %19, 7
  br i1 %20, label %21, label %32

21:                                               ; preds = %12
  %22 = load ptr, ptr %3, align 8, !tbaa !4
  %23 = getelementptr inbounds nuw %struct.lua_State, ptr %22, i32 0, i32 10
  %24 = load ptr, ptr %23, align 8, !tbaa !11
  %25 = getelementptr inbounds nuw %struct.CallInfo, ptr %24, i32 0, i32 1
  %26 = load ptr, ptr %25, align 8, !tbaa !40
  %27 = getelementptr inbounds nuw %struct.lua_TValue, ptr %26, i32 0, i32 0
  %28 = load ptr, ptr %27, align 8, !tbaa !37
  %29 = getelementptr inbounds nuw %struct.Closure, ptr %28, i32 0, i32 3
  %30 = load i8, ptr %29, align 1, !tbaa !43
  %31 = icmp ne i8 %30, 0
  br i1 %31, label %32, label %33

32:                                               ; preds = %21, %12
  store i1 false, ptr %2, align 1
  br label %42

33:                                               ; preds = %21
  %34 = load ptr, ptr %3, align 8, !tbaa !4
  %35 = getelementptr inbounds nuw %struct.lua_State, ptr %34, i32 0, i32 10
  %36 = load ptr, ptr %35, align 8, !tbaa !11
  %37 = getelementptr inbounds nuw %struct.CallInfo, ptr %36, i32 0, i32 3
  %38 = load ptr, ptr %37, align 8, !tbaa !50
  %39 = load i32, ptr %38, align 4, !tbaa !9
  %40 = and i32 %39, 255
  %41 = icmp eq i32 %40, 1
  store i1 %41, ptr %2, align 1
  br label %42

42:                                               ; preds = %33, %32, %11
  %43 = load i1, ptr %2, align 1
  ret i1 %43
}