; Function Attrs: mustprogress nofree norecurse nosync nounwind willreturn memory(read, inaccessiblemem: none) uwtable
define hidden noundef zeroext i1 @_Z12luaG_onbreakP9lua_State(ptr noundef readonly captures(none) %0) local_unnamed_addr #9 {
  %2 = getelementptr inbounds nuw i8, ptr %0, i64 32
  %3 = load ptr, ptr %2, align 8, !tbaa !4
  %4 = getelementptr inbounds nuw i8, ptr %0, i64 64
  %5 = load ptr, ptr %4, align 8, !tbaa !19
  %6 = icmp eq ptr %3, %5
  br i1 %6, label %23, label %7

7:                                                ; preds = %1
  %8 = getelementptr inbounds nuw i8, ptr %3, i64 8
  %9 = load ptr, ptr %8, align 8, !tbaa !23
  %10 = getelementptr inbounds nuw i8, ptr %9, i64 12
  %11 = load i32, ptr %10, align 4, !tbaa !24
  %12 = icmp eq i32 %11, 7
  br i1 %12, label %13, label %23

13:                                               ; preds = %7
  %14 = load ptr, ptr %9, align 8, !tbaa !26
  %15 = getelementptr inbounds nuw i8, ptr %14, i64 3
  %16 = load i8, ptr %15, align 1, !tbaa !27
  %.not = icmp eq i8 %16, 0
  br i1 %.not, label %17, label %23

17:                                               ; preds = %13
  %18 = getelementptr inbounds nuw i8, ptr %3, i64 24
  %19 = load ptr, ptr %18, align 8, !tbaa !39
  %20 = load i32, ptr %19, align 4, !tbaa !46
  %21 = and i32 %20, 255
  %22 = icmp eq i32 %21, 1
  br label %23

23:                                               ; preds = %7, %13, %1, %17
  %.0 = phi i1 [ %22, %17 ], [ false, %1 ], [ false, %13 ], [ false, %7 ]
  ret i1 %.0
}